target datalayout = "e-m:e-p270:32:32-p271:32:32-p272:64:64-i64:64-i128:128-f80:128-n8:16:32:64-S128"
target triple = "x86_64-pc-linux-gnu"

%struct.pdf_struct = type { ptr, i32, i32, i32, i32, i32, ptr, i64, ptr, i64, i64, i64, ptr, ptr, i32, i32, ptr, i32, ptr, i32, %struct.pdf_stats, ptr, i32, i32 }
%struct.pdf_stats = type { i32, i32, i32, i32, i32, i32, i32, i32, i32, i32, i32, i32, i32, i32, i32, i32, i32, i32, i32, i32, i32, i32, i32, i32, i32, ptr, ptr, ptr, ptr, ptr, ptr, ptr, ptr }
%struct.objstm_struct = type { i32, i32, i32, i32, i32, i32, ptr, i64 }
%struct.pdf_obj = type { i32, i64, i32, i32, i32, i32, [64 x i32], ptr, i64, ptr, ptr, i8 }
%struct.cli_ctx_tag = type { ptr, ptr, ptr, ptr, ptr, ptr, ptr, i64, ptr, i32, i32, ptr, i32, i32, ptr, [16 x i8], ptr, ptr, ptr, ptr, ptr, ptr, %struct.timeval, i8, i8 }
%struct.timeval = type { i64, i64 }
%struct.cl_scan_options = type { i32, i32, i32, i32, i32 }

@.str.94 = private unnamed_addr constant [9 x i8] c"PDFStats\00", align 1
@.str.288 = private unnamed_addr constant [8 x i8] c"/Colors\00", align 1
@.str.289 = private unnamed_addr constant [10 x i8] c"BigColors\00", align 1

; Function Attrs: nounwind uwtable
define internal void @Colors_cb(ptr noundef %0, ptr noundef %1, ptr noundef %2) #0 {
  %4 = alloca ptr, align 8
  %5 = alloca ptr, align 8
  %6 = alloca ptr, align 8
  %7 = alloca ptr, align 8
  %8 = alloca ptr, align 8
  %9 = alloca ptr, align 8
  %10 = alloca i64, align 8
  %11 = alloca i64, align 8
  %12 = alloca ptr, align 8
  %13 = alloca ptr, align 8
  store ptr %0, ptr %4, align 8
  store ptr %1, ptr %5, align 8
  store ptr %2, ptr %6, align 8
  store ptr null, ptr %7, align 8
  %14 = load ptr, ptr %5, align 8
  %15 = getelementptr inbounds %struct.pdf_obj, ptr %14, i32 0, i32 9
  %16 = load ptr, ptr %15, align 8
  %17 = icmp ne ptr %16, null
  br i1 %17, label %18, label %29

18:                                               ; preds = %3
  %19 = load ptr, ptr %5, align 8
  %20 = getelementptr inbounds %struct.pdf_obj, ptr %19, i32 0, i32 0
  %21 = load i32, ptr %20, align 8
  %22 = load ptr, ptr %5, align 8
  %23 = getelementptr inbounds %struct.pdf_obj, ptr %22, i32 0, i32 9
  %24 = load ptr, ptr %23, align 8
  %25 = getelementptr inbounds %struct.objstm_struct, ptr %24, i32 0, i32 6
  %26 = load ptr, ptr %25, align 8
  %27 = zext i32 %21 to i64
  %28 = getelementptr inbounds i8, ptr %26, i64 %27
  br label %38

29:                                               ; preds = %3
  %30 = load ptr, ptr %5, align 8
  %31 = getelementptr inbounds %struct.pdf_obj, ptr %30, i32 0, i32 0
  %32 = load i32, ptr %31, align 8
  %33 = load ptr, ptr %4, align 8
  %34 = getelementptr inbounds %struct.pdf_struct, ptr %33, i32 0, i32 8
  %35 = load ptr, ptr %34, align 8
  %36 = zext i32 %32 to i64
  %37 = getelementptr inbounds i8, ptr %35, i64 %36
  br label %38

38:                                               ; preds = %29, %18
  %39 = phi ptr [ %28, %18 ], [ %37, %29 ]
  store ptr %39, ptr %13, align 8
  %40 = load ptr, ptr %4, align 8
  %41 = icmp ne ptr %40, null
  br i1 %41, label %42, label %54

42:                                               ; preds = %38
  %43 = load ptr, ptr %4, align 8
  %44 = getelementptr inbounds %struct.pdf_struct, ptr %43, i32 0, i32 12
  %45 = load ptr, ptr %44, align 8
  %46 = icmp ne ptr %45, null
  br i1 %46, label %47, label %54

47:                                               ; preds = %42
  %48 = load ptr, ptr %4, align 8
  %49 = getelementptr inbounds %struct.pdf_struct, ptr %48, i32 0, i32 12
  %50 = load ptr, ptr %49, align 8
  %51 = getelementptr inbounds %struct.cli_ctx_tag, ptr %50, i32 0, i32 21
  %52 = load ptr, ptr %51, align 8
  %53 = icmp ne ptr %52, null
  br i1 %53, label %55, label %54

54:                                               ; preds = %47, %42, %38
  br label %177

55:                                               ; preds = %47
  %56 = load ptr, ptr %4, align 8
  %57 = getelementptr inbounds %struct.pdf_struct, ptr %56, i32 0, i32 12
  %58 = load ptr, ptr %57, align 8
  store ptr %58, ptr %7, align 8
  %59 = load ptr, ptr %7, align 8
  %60 = getelementptr inbounds %struct.cli_ctx_tag, ptr %59, i32 0, i32 8
  %61 = load ptr, ptr %60, align 8
  %62 = getelementptr inbounds %struct.cl_scan_options, ptr %61, i32 0, i32 0
  %63 = load i32, ptr %62, align 4
  %64 = and i32 %63, 2
  %65 = icmp ne i32 %64, 0
  br i1 %65, label %67, label %66

66:                                               ; preds = %55
  br label %177

67:                                               ; preds = %55
  %68 = load ptr, ptr %13, align 8
  %69 = load ptr, ptr %5, align 8
  %70 = getelementptr inbounds %struct.pdf_obj, ptr %69, i32 0, i32 1
  %71 = load i64, ptr %70, align 8
  %72 = call ptr @cli_memstr(ptr noundef %68, i64 noundef %71, ptr noundef @.str.288, i64 noundef 7)
  store ptr %72, ptr %12, align 8
  %73 = load ptr, ptr %12, align 8
  %74 = icmp ne ptr %73, null
  br i1 %74, label %76, label %75

75:                                               ; preds = %67
  br label %177

76:                                               ; preds = %67
  %77 = load ptr, ptr %12, align 8
  %78 = getelementptr inbounds i8, ptr %77, i64 7
  store ptr %78, ptr %12, align 8
  %79 = load ptr, ptr %5, align 8
  %80 = getelementptr inbounds %struct.pdf_obj, ptr %79, i32 0, i32 1
  %81 = load i64, ptr %80, align 8
  %82 = load ptr, ptr %12, align 8
  %83 = load ptr, ptr %13, align 8
  %84 = ptrtoint ptr %82 to i64
  %85 = ptrtoint ptr %83 to i64
  %86 = sub i64 %84, %85
  %87 = sub i64 %81, %86
  %88 = icmp ult i64 %87, 2
  br i1 %88, label %89, label %90

89:                                               ; preds = %76
  br label %177

90:                                               ; preds = %76
  br label %91

91:                                               ; preds = %116, %90
  %92 = load ptr, ptr %12, align 8
  %93 = load ptr, ptr %13, align 8
  %94 = ptrtoint ptr %92 to i64
  %95 = ptrtoint ptr %93 to i64
  %96 = sub i64 %94, %95
  %97 = load ptr, ptr %5, align 8
  %98 = getelementptr inbounds %struct.pdf_obj, ptr %97, i32 0, i32 1
  %99 = load i64, ptr %98, align 8
  %100 = icmp ult i64 %96, %99
  br i1 %100, label %101, label %114

101:                                              ; preds = %91
  %102 = call ptr @__ctype_b_loc() #10
  %103 = load ptr, ptr %102, align 8
  %104 = load ptr, ptr %12, align 8
  %105 = getelementptr inbounds i8, ptr %104, i64 0
  %106 = load i8, ptr %105, align 1
  %107 = sext i8 %106 to i32
  %108 = sext i32 %107 to i64
  %109 = getelementptr inbounds i16, ptr %103, i64 %108
  %110 = load i16, ptr %109, align 2
  %111 = zext i16 %110 to i32
  %112 = and i32 %111, 8192
  %113 = icmp ne i32 %112, 0
  br label %114

114:                                              ; preds = %101, %91
  %115 = phi i1 [ false, %91 ], [ %113, %101 ]
  br i1 %115, label %116, label %119

116:                                              ; preds = %114
  %117 = load ptr, ptr %12, align 8
  %118 = getelementptr inbounds i8, ptr %117, i32 1
  store ptr %118, ptr %12, align 8
  br label %91

119:                                              ; preds = %114
  %120 = load ptr, ptr %12, align 8
  %121 = load ptr, ptr %13, align 8
  %122 = ptrtoint ptr %120 to i64
  %123 = ptrtoint ptr %121 to i64
  %124 = sub i64 %122, %123
  %125 = load ptr, ptr %5, align 8
  %126 = getelementptr inbounds %struct.pdf_obj, ptr %125, i32 0, i32 1
  %127 = load i64, ptr %126, align 8
  %128 = icmp eq i64 %124, %127
  br i1 %128, label %129, label %130

129:                                              ; preds = %119
  br label %177

130:                                              ; preds = %119
  %131 = load ptr, ptr %12, align 8
  %132 = load ptr, ptr %12, align 8
  %133 = load ptr, ptr %13, align 8
  %134 = ptrtoint ptr %132 to i64
  %135 = ptrtoint ptr %133 to i64
  %136 = sub i64 %134, %135
  %137 = load ptr, ptr %5, align 8
  %138 = getelementptr inbounds %struct.pdf_obj, ptr %137, i32 0, i32 1
  %139 = load i64, ptr %138, align 8
  %140 = sub i64 %136, %139
  %141 = call i32 @cli_strntol_wrap(ptr noundef %131, i64 noundef %140, i32 noundef 0, i32 noundef 10, ptr noundef %11)
  %142 = icmp ne i32 0, %141
  br i1 %142, label %143, label %144

143:                                              ; preds = %130
  br label %177

144:                                              ; preds = %130
  %145 = load i64, ptr %11, align 8
  %146 = icmp slt i64 %145, 0
  br i1 %146, label %147, label %148

147:                                              ; preds = %144
  br label %177

148:                                              ; preds = %144
  br label %149

149:                                              ; preds = %148
  %150 = load i64, ptr %11, align 8
  store i64 %150, ptr %10, align 8
  %151 = load i64, ptr %10, align 8
  %152 = icmp ult i64 %151, 16777216
  br i1 %152, label %153, label %154

153:                                              ; preds = %149
  br label %177

154:                                              ; preds = %149
  %155 = load ptr, ptr %4, align 8
  %156 = getelementptr inbounds %struct.pdf_struct, ptr %155, i32 0, i32 12
  %157 = load ptr, ptr %156, align 8
  %158 = getelementptr inbounds %struct.cli_ctx_tag, ptr %157, i32 0, i32 21
  %159 = load ptr, ptr %158, align 8
  %160 = call ptr @cli_jsonobj(ptr noundef %159, ptr noundef @.str.94)
  store ptr %160, ptr %9, align 8
  %161 = load ptr, ptr %9, align 8
  %162 = icmp ne ptr %161, null
  br i1 %162, label %164, label %163

163:                                              ; preds = %154
  br label %177

164:                                              ; preds = %154
  %165 = load ptr, ptr %9, align 8
  %166 = call ptr @cli_jsonarray(ptr noundef %165, ptr noundef @.str.289)
  store ptr %166, ptr %8, align 8
  %167 = load ptr, ptr %8, align 8
  %168 = icmp ne ptr %167, null
  br i1 %168, label %170, label %169

169:                                              ; preds = %164
  br label %177

170:                                              ; preds = %164
  %171 = load ptr, ptr %8, align 8
  %172 = load ptr, ptr %5, align 8
  %173 = getelementptr inbounds %struct.pdf_obj, ptr %172, i32 0, i32 2
  %174 = load i32, ptr %173, align 8
  %175 = lshr i32 %174, 8
  %176 = call i32 @cli_jsonint_array(ptr noundef %171, i32 noundef %175)
  br label %177

177:                                              ; preds = %170, %169, %163, %153, %147, %143, %129, %89, %75, %66, %54
  ret void
}