; Function Attrs: nounwind uwtable
define internal void @Colors_cb(ptr noundef readonly %0, ptr nocapture noundef readonly %1, ptr nocapture readnone %2) #0 {
  %4 = alloca i64, align 8
  %5 = getelementptr inbounds i8, ptr %1, i64 304
  %6 = load ptr, ptr %5, align 8
  %.not = icmp eq ptr %6, null
  %7 = load i32, ptr %1, align 8
  %8 = zext i32 %7 to i64
  br i1 %.not, label %.thread, label %10

.thread:                                          ; preds = %3
  %9 = getelementptr inbounds i8, ptr %0, i64 48
  br label %12

10:                                               ; preds = %3
  %11 = getelementptr inbounds i8, ptr %6, i64 24
  %.not45 = icmp eq ptr %0, null
  br i1 %.not45, label %.critedge.thread, label %12

12:                                               ; preds = %.thread, %10
  %.pn.in = phi ptr [ %9, %.thread ], [ %11, %10 ]
  %.pn = load ptr, ptr %.pn.in, align 8
  %13 = getelementptr inbounds i8, ptr %.pn, i64 %8
  %14 = getelementptr inbounds i8, ptr %0, i64 80
  %15 = load ptr, ptr %14, align 8
  %.not46 = icmp eq ptr %15, null
  br i1 %.not46, label %.critedge.thread, label %16

16:                                               ; preds = %12
  %17 = getelementptr inbounds i8, ptr %15, i64 160
  %18 = load ptr, ptr %17, align 8
  %.not47 = icmp eq ptr %18, null
  br i1 %.not47, label %.critedge.thread, label %19

19:                                               ; preds = %16
  %20 = getelementptr inbounds i8, ptr %15, i64 64
  %21 = load ptr, ptr %20, align 8
  %22 = load i32, ptr %21, align 4
  %23 = and i32 %22, 2
  %.not48 = icmp eq i32 %23, 0
  br i1 %.not48, label %.critedge.thread, label %24

24:                                               ; preds = %19
  %25 = getelementptr inbounds i8, ptr %1, i64 8
  %26 = load i64, ptr %25, align 8
  %27 = tail call ptr @cli_memstr(ptr noundef %13, i64 noundef %26, ptr noundef nonnull @.str.288, i64 noundef 7) #22
  %.not49 = icmp eq ptr %27, null
  br i1 %.not49, label %.critedge.thread, label %28

28:                                               ; preds = %24
  %29 = getelementptr inbounds i8, ptr %27, i64 7
  %30 = load i64, ptr %25, align 8
  %31 = ptrtoint ptr %29 to i64
  %32 = ptrtoint ptr %13 to i64
  %.neg = sub i64 %32, %31
  %33 = add i64 %.neg, %30
  %34 = icmp ult i64 %33, 2
  br i1 %34, label %.critedge.thread, label %.preheader

.preheader:                                       ; preds = %28
  %35 = sub i64 %31, %32
  %36 = icmp ult i64 %35, %30
  br i1 %36, label %.lr.ph, label %.critedge

.lr.ph:                                           ; preds = %.preheader
  %37 = tail call ptr @__ctype_b_loc() #24
  %38 = load ptr, ptr %37, align 8
  %39 = load i8, ptr %29, align 1
  %40 = sext i8 %39 to i64
  %41 = getelementptr inbounds i16, ptr %38, i64 %40
  %42 = load i16, ptr %41, align 2
  %43 = and i16 %42, 8192
  %.not5069 = icmp eq i16 %43, 0
  br i1 %.not5069, label %.critedge, label %.lr.ph71

44:                                               ; preds = %.lr.ph71
  %45 = load i8, ptr %50, align 1
  %46 = sext i8 %45 to i64
  %47 = getelementptr inbounds i16, ptr %38, i64 %46
  %48 = load i16, ptr %47, align 2
  %49 = and i16 %48, 8192
  %.not50 = icmp eq i16 %49, 0
  br i1 %.not50, label %.critedge, label %.lr.ph71

.lr.ph71:                                         ; preds = %.lr.ph, %44
  %.05670 = phi ptr [ %50, %44 ], [ %29, %.lr.ph ]
  %50 = getelementptr inbounds i8, ptr %.05670, i64 1
  %51 = ptrtoint ptr %50 to i64
  %52 = sub i64 %51, %32
  %53 = icmp ult i64 %52, %30
  br i1 %53, label %44, label %.critedge.thread

.critedge:                                        ; preds = %44, %.lr.ph, %.preheader
  %.0.lcssa = phi ptr [ %29, %.preheader ], [ %29, %.lr.ph ], [ %50, %44 ]
  %.lcssa = phi i64 [ %35, %.preheader ], [ %35, %.lr.ph ], [ %52, %44 ]
  %54 = icmp eq i64 %.lcssa, %30
  br i1 %54, label %.critedge.thread, label %55

55:                                               ; preds = %.critedge
  %56 = sub i64 %.lcssa, %30
  %57 = call i32 @cli_strntol_wrap(ptr noundef nonnull %.0.lcssa, i64 noundef %56, i32 noundef 0, i32 noundef 10, ptr noundef nonnull %4) #22
  %58 = icmp ne i32 %57, 0
  %59 = load i64, ptr %4, align 8
  %60 = icmp slt i64 %59, 16777216
  %or.cond53 = select i1 %58, i1 true, i1 %60
  br i1 %or.cond53, label %.critedge.thread, label %61

61:                                               ; preds = %55
  %62 = load ptr, ptr %14, align 8
  %63 = getelementptr inbounds i8, ptr %62, i64 160
  %64 = load ptr, ptr %63, align 8
  %65 = call ptr @cli_jsonobj(ptr noundef %64, ptr noundef nonnull @.str.94) #22
  %.not51 = icmp eq ptr %65, null
  br i1 %.not51, label %.critedge.thread, label %66

66:                                               ; preds = %61
  %67 = call ptr @cli_jsonarray(ptr noundef nonnull %65, ptr noundef nonnull @.str.289) #22
  %.not52 = icmp eq ptr %67, null
  br i1 %.not52, label %.critedge.thread, label %68

68:                                               ; preds = %66
  %69 = getelementptr inbounds i8, ptr %1, i64 16
  %70 = load i32, ptr %69, align 8
  %71 = lshr i32 %70, 8
  %72 = call i32 @cli_jsonint_array(ptr noundef nonnull %67, i32 noundef %71) #22
  br label %.critedge.thread

.critedge.thread:                                 ; preds = %.lr.ph71, %66, %61, %55, %.critedge, %28, %24, %19, %10, %12, %16, %68
  ret void
}